target datalayout = "e-m:e-p270:32:32-p271:32:32-p272:64:64-i64:64-i128:128-f80:128-n8:16:32:64-S128"
target triple = "x86_64-pc-linux-gnu"

%struct.GLFWvidmode = type { i32, i32, i32, i32, i32, i32 }

; Function Attrs: nounwind uwtable
define internal void @getVideoMode(ptr dead_on_unwind noalias writable sret(%struct.GLFWvidmode) align 4 %0) #0 {
  %2 = getelementptr inbounds nuw %struct.GLFWvidmode, ptr %0, i32 0, i32 0
  store i32 1920, ptr %2, align 4, !tbaa !7
  %3 = getelementptr inbounds nuw %struct.GLFWvidmode, ptr %0, i32 0, i32 1
  store i32 1080, ptr %3, align 4, !tbaa !10
  %4 = getelementptr inbounds nuw %struct.GLFWvidmode, ptr %0, i32 0, i32 2
  store i32 8, ptr %4, align 4, !tbaa !14
  %5 = getelementptr inbounds nuw %struct.GLFWvidmode, ptr %0, i32 0, i32 3
  store i32 8, ptr %5, align 4, !tbaa !15
  %6 = getelementptr inbounds nuw %struct.GLFWvidmode, ptr %0, i32 0, i32 4
  store i32 8, ptr %6, align 4, !tbaa !16
  %7 = getelementptr inbounds nuw %struct.GLFWvidmode, ptr %0, i32 0, i32 5
  store i32 60, ptr %7, align 4, !tbaa !17
  ret void
}

; Function Attrs: nounwind uwtable
define hidden i32 @_glfwGetVideoModeNull(ptr noundef %0, ptr noundef %1) #0 {
  %3 = alloca ptr, align 8
  %4 = alloca ptr, align 8
  %5 = alloca %struct.GLFWvidmode, align 4
  store ptr %0, ptr %3, align 8, !tbaa !11
  store ptr %1, ptr %4, align 8, !tbaa !23
  %6 = load ptr, ptr %4, align 8, !tbaa !23
  call void @llvm.lifetime.start.p0(i64 24, ptr %5) #6
  call void @getVideoMode(ptr dead_on_unwind writable sret(%struct.GLFWvidmode) align 4 %5)
  call void @llvm.memcpy.p0.p0.i64(ptr align 4 %6, ptr align 4 %5, i64 24, i1 false), !tbaa.struct !25
  call void @llvm.lifetime.end.p0(i64 24, ptr %5) #6
  ret i32 1
}