; Function Attrs: mustprogress nofree norecurse nosync nounwind willreturn memory(argmem: write) uwtable
define hidden noundef i32 @_glfwGetVideoModeNull(ptr noundef readnone captures(none) %0, ptr noundef writeonly captures(none) initializes((0, 24)) %1) local_unnamed_addr #2 {
  store i32 1920, ptr %1, align 4, !tbaa !3
  %.sroa.4.0..sroa_idx = getelementptr inbounds nuw i8, ptr %1, i64 4
  store i32 1080, ptr %.sroa.4.0..sroa_idx, align 4, !tbaa !3
  %.sroa.5.0..sroa_idx = getelementptr inbounds nuw i8, ptr %1, i64 8
  store i32 8, ptr %.sroa.5.0..sroa_idx, align 4, !tbaa !3
  %.sroa.6.0..sroa_idx = getelementptr inbounds nuw i8, ptr %1, i64 12
  store i32 8, ptr %.sroa.6.0..sroa_idx, align 4, !tbaa !3
  %.sroa.7.0..sroa_idx = getelementptr inbounds nuw i8, ptr %1, i64 16
  store i32 8, ptr %.sroa.7.0..sroa_idx, align 4, !tbaa !3
  %.sroa.8.0..sroa_idx = getelementptr inbounds nuw i8, ptr %1, i64 20
  store i32 60, ptr %.sroa.8.0..sroa_idx, align 4, !tbaa !3
  ret i32 1
}